; ModuleID = 'source-C-CXX/3/626.cpp'
source_filename = "source-C-CXX/3/626.cpp"
target datalayout = "e-m:e-p270:32:32-p271:32:32-p272:64:64-i64:64-f80:128-n8:16:32:64-S128"
target triple = "x86_64-pc-linux-gnu"

%"class.std::ios_base::Init" = type { i8 }
%"class.std::basic_istream" = type { i32 (...)**, i64, %"class.std::basic_ios" }
%"class.std::basic_ios" = type { %"class.std::ios_base", %"class.std::basic_ostream"*, i8, i8, %"class.std::basic_streambuf"*, %"class.std::ctype"*, %"class.std::num_put"*, %"class.std::num_get"* }
%"class.std::ios_base" = type { i32 (...)**, i64, i64, i32, i32, i32, %"struct.std::ios_base::_Callback_list"*, %"struct.std::ios_base::_Words", [8 x %"struct.std::ios_base::_Words"], i32, %"struct.std::ios_base::_Words"*, %"class.std::locale" }
%"struct.std::ios_base::_Callback_list" = type { %"struct.std::ios_base::_Callback_list"*, void (i32, %"class.std::ios_base"*, i32)*, i32, i32 }
%"struct.std::ios_base::_Words" = type { i8*, i64 }
%"class.std::locale" = type { %"class.std::locale::_Impl"* }
%"class.std::locale::_Impl" = type { i32, %"class.std::locale::facet"**, i64, %"class.std::locale::facet"**, i8** }
%"class.std::locale::facet" = type <{ i32 (...)**, i32, [4 x i8] }>
%"class.std::basic_ostream" = type { i32 (...)**, %"class.std::basic_ios" }
%"class.std::basic_streambuf" = type { i32 (...)**, i8*, i8*, i8*, i8*, i8*, i8*, %"class.std::locale" }
%"class.std::ctype" = type <{ %"class.std::locale::facet.base", [4 x i8], %struct.__locale_struct*, i8, [7 x i8], i32*, i32*, i16*, i8, [256 x i8], [256 x i8], i8, [6 x i8] }>
%"class.std::locale::facet.base" = type <{ i32 (...)**, i32 }>
%struct.__locale_struct = type { [13 x %struct.__locale_data*], i16*, i32*, i32*, [13 x i8*] }
%struct.__locale_data = type opaque
%"class.std::num_put" = type { %"class.std::locale::facet.base", [4 x i8] }
%"class.std::num_get" = type { %"class.std::locale::facet.base", [4 x i8] }

@_ZStL8__ioinit = internal global %"class.std::ios_base::Init" zeroinitializer, align 1
@__dso_handle = external hidden global i8
@_ZSt3cin = external global %"class.std::basic_istream", align 8
@_ZSt4cout = external global %"class.std::basic_ostream", align 8
@llvm.global_ctors = appending global [1 x { i32, void ()*, i8* }] [{ i32, void ()*, i8* } { i32 65535, void ()* @_GLOBAL__sub_I_626.cpp, i8* null }]

declare void @_ZNSt8ios_base4InitC1Ev(%"class.std::ios_base::Init"* nonnull align 1 dereferenceable(1)) unnamed_addr #0

; Function Attrs: nounwind
declare void @_ZNSt8ios_base4InitD1Ev(%"class.std::ios_base::Init"* nonnull align 1 dereferenceable(1)) unnamed_addr #1

; Function Attrs: nofree nounwind
declare i32 @__cxa_atexit(void (i8*)*, i8*, i8*) local_unnamed_addr #2

; Function Attrs: mustprogress norecurse sspstrong uwtable
define dso_local i32 @main() local_unnamed_addr #3 {
  %1 = alloca i32, align 4
  %2 = alloca i32, align 4
  %3 = bitcast i32* %1 to i8*
  call void @llvm.lifetime.start.p0i8(i64 4, i8* nonnull %3) #8
  %4 = bitcast i32* %2 to i8*
  call void @llvm.lifetime.start.p0i8(i64 4, i8* nonnull %4) #8
  %5 = call nonnull align 8 dereferenceable(16) %"class.std::basic_istream"* @_ZNSirsERi(%"class.std::basic_istream"* nonnull align 8 dereferenceable(16) @_ZSt3cin, i32* nonnull align 4 dereferenceable(4) %1)
  %6 = call nonnull align 8 dereferenceable(16) %"class.std::basic_istream"* @_ZNSirsERi(%"class.std::basic_istream"* nonnull align 8 dereferenceable(16) %5, i32* nonnull align 4 dereferenceable(4) %2)
  %7 = load i32, i32* %1, align 4, !tbaa !5
  %8 = add nsw i32 %7, 1
  %9 = zext i32 %8 to i64
  %10 = load i32, i32* %2, align 4, !tbaa !5
  %11 = add nsw i32 %10, 1
  %12 = zext i32 %11 to i64
  %13 = call i8* @llvm.stacksave()
  %14 = mul nuw i64 %12, %9
  %15 = alloca i32, i64 %14, align 16
  %16 = load i32, i32* %1, align 4, !tbaa !5
  %17 = icmp slt i32 %16, 1
  %18 = load i32, i32* %2, align 4, !tbaa !5
  %19 = icmp slt i32 %18, 1
  %20 = select i1 %17, i1 true, i1 %19
  br i1 %20, label %27, label %21

21:                                               ; preds = %0, %43
  %22 = phi i32 [ %44, %43 ], [ %16, %0 ]
  %23 = phi i32 [ %45, %43 ], [ %18, %0 ]
  %24 = phi i64 [ %46, %43 ], [ 1, %0 ]
  %25 = mul nuw nsw i64 %24, %12
  %26 = icmp slt i32 %23, 1
  br i1 %26, label %43, label %32

27:                                               ; preds = %43, %0
  %28 = phi i32 [ %18, %0 ], [ %45, %43 ]
  %29 = phi i32 [ %16, %0 ], [ %44, %43 ]
  %30 = add nsw i32 %28, %29
  %31 = icmp slt i32 %30, 2
  br i1 %31, label %114, label %49

32:                                               ; preds = %21, %32
  %33 = phi i64 [ %37, %32 ], [ 1, %21 ]
  %34 = add nuw nsw i64 %25, %33
  %35 = getelementptr inbounds i32, i32* %15, i64 %34
  %36 = call nonnull align 8 dereferenceable(16) %"class.std::basic_istream"* @_ZNSirsERi(%"class.std::basic_istream"* nonnull align 8 dereferenceable(16) @_ZSt3cin, i32* nonnull align 4 dereferenceable(4) %35)
  %37 = add nuw nsw i64 %33, 1
  %38 = load i32, i32* %2, align 4, !tbaa !5
  %39 = sext i32 %38 to i64
  %40 = icmp slt i64 %33, %39
  br i1 %40, label %32, label %41, !llvm.loop !9

41:                                               ; preds = %32
  %42 = load i32, i32* %1, align 4, !tbaa !5
  br label %43

43:                                               ; preds = %41, %21
  %44 = phi i32 [ %42, %41 ], [ %22, %21 ]
  %45 = phi i32 [ %38, %41 ], [ %23, %21 ]
  %46 = add nuw nsw i64 %24, 1
  %47 = sext i32 %44 to i64
  %48 = icmp slt i64 %24, %47
  br i1 %48, label %21, label %27, !llvm.loop !11

49:                                               ; preds = %27, %106
  %50 = phi i32 [ %108, %106 ], [ %28, %27 ]
  %51 = phi i32 [ %107, %106 ], [ %29, %27 ]
  %52 = phi i64 [ %109, %106 ], [ 2, %27 ]
  %53 = phi i64 [ %113, %106 ], [ 1, %27 ]
  br label %54

54:                                               ; preds = %102, %49
  %55 = phi i32 [ %51, %49 ], [ %105, %102 ]
  %56 = phi i32 [ %50, %49 ], [ %104, %102 ]
  %57 = phi i64 [ %53, %49 ], [ %103, %102 ]
  %58 = phi i64 [ 1, %49 ], [ %100, %102 ]
  %59 = sext i32 %56 to i64
  %60 = icmp sgt i64 %57, %59
  %61 = sext i32 %55 to i64
  %62 = icmp sgt i64 %58, %61
  %63 = select i1 %60, i1 true, i1 %62
  br i1 %63, label %99, label %64

64:                                               ; preds = %54
  %65 = mul nuw nsw i64 %58, %12
  %66 = add nuw nsw i64 %65, %57
  %67 = getelementptr inbounds i32, i32* %15, i64 %66
  %68 = load i32, i32* %67, align 4, !tbaa !5
  %69 = call nonnull align 8 dereferenceable(8) %"class.std::basic_ostream"* @_ZNSolsEi(%"class.std::basic_ostream"* nonnull align 8 dereferenceable(8) @_ZSt4cout, i32 %68)
  %70 = bitcast %"class.std::basic_ostream"* %69 to i8**
  %71 = load i8*, i8** %70, align 8, !tbaa !13
  %72 = getelementptr i8, i8* %71, i64 -24
  %73 = bitcast i8* %72 to i64*
  %74 = load i64, i64* %73, align 8
  %75 = bitcast %"class.std::basic_ostream"* %69 to i8*
  %76 = add nsw i64 %74, 240
  %77 = getelementptr inbounds i8, i8* %75, i64 %76
  %78 = bitcast i8* %77 to %"class.std::ctype"**
  %79 = load %"class.std::ctype"*, %"class.std::ctype"** %78, align 8, !tbaa !15
  %80 = icmp eq %"class.std::ctype"* %79, null
  br i1 %80, label %81, label %82

81:                                               ; preds = %64
  call void @_ZSt16__throw_bad_castv() #9
  unreachable

82:                                               ; preds = %64
  %83 = getelementptr inbounds %"class.std::ctype", %"class.std::ctype"* %79, i64 0, i32 8
  %84 = load i8, i8* %83, align 8, !tbaa !19
  %85 = icmp eq i8 %84, 0
  br i1 %85, label %89, label %86

86:                                               ; preds = %82
  %87 = getelementptr inbounds %"class.std::ctype", %"class.std::ctype"* %79, i64 0, i32 9, i64 10
  %88 = load i8, i8* %87, align 1, !tbaa !21
  br label %95

89:                                               ; preds = %82
  call void @_ZNKSt5ctypeIcE13_M_widen_initEv(%"class.std::ctype"* nonnull align 8 dereferenceable(570) %79)
  %90 = bitcast %"class.std::ctype"* %79 to i8 (%"class.std::ctype"*, i8)***
  %91 = load i8 (%"class.std::ctype"*, i8)**, i8 (%"class.std::ctype"*, i8)*** %90, align 8, !tbaa !13
  %92 = getelementptr inbounds i8 (%"class.std::ctype"*, i8)*, i8 (%"class.std::ctype"*, i8)** %91, i64 6
  %93 = load i8 (%"class.std::ctype"*, i8)*, i8 (%"class.std::ctype"*, i8)** %92, align 8
  %94 = call signext i8 %93(%"class.std::ctype"* nonnull align 8 dereferenceable(570) %79, i8 signext 10)
  br label %95

95:                                               ; preds = %86, %89
  %96 = phi i8 [ %88, %86 ], [ %94, %89 ]
  %97 = call nonnull align 8 dereferenceable(8) %"class.std::basic_ostream"* @_ZNSo3putEc(%"class.std::basic_ostream"* nonnull align 8 dereferenceable(8) %69, i8 signext %96)
  %98 = call nonnull align 8 dereferenceable(8) %"class.std::basic_ostream"* @_ZNSo5flushEv(%"class.std::basic_ostream"* nonnull align 8 dereferenceable(8) %97)
  br label %99

99:                                               ; preds = %54, %95
  %100 = add nuw nsw i64 %58, 1
  %101 = icmp eq i64 %100, %52
  br i1 %101, label %106, label %102, !llvm.loop !22

102:                                              ; preds = %99
  %103 = add nsw i64 %57, -1
  %104 = load i32, i32* %2, align 4, !tbaa !5
  %105 = load i32, i32* %1, align 4
  br label %54

106:                                              ; preds = %99
  %107 = load i32, i32* %1, align 4, !tbaa !5
  %108 = load i32, i32* %2, align 4, !tbaa !5
  %109 = add nuw nsw i64 %52, 1
  %110 = add nsw i32 %108, %107
  %111 = sext i32 %110 to i64
  %112 = icmp slt i64 %52, %111
  %113 = add nuw nsw i64 %53, 1
  br i1 %112, label %49, label %114, !llvm.loop !23

114:                                              ; preds = %106, %27
  call void @llvm.stackrestore(i8* %13)
  call void @llvm.lifetime.end.p0i8(i64 4, i8* nonnull %4) #8
  call void @llvm.lifetime.end.p0i8(i64 4, i8* nonnull %3) #8
  ret i32 0
}

; Function Attrs: argmemonly mustprogress nofree nosync nounwind willreturn
declare void @llvm.lifetime.start.p0i8(i64 immarg, i8* nocapture) #4

declare nonnull align 8 dereferenceable(16) %"class.std::basic_istream"* @_ZNSirsERi(%"class.std::basic_istream"* nonnull align 8 dereferenceable(16), i32* nonnull align 4 dereferenceable(4)) local_unnamed_addr #0

; Function Attrs: mustprogress nofree nosync nounwind willreturn
declare i8* @llvm.stacksave() #5

declare nonnull align 8 dereferenceable(8) %"class.std::basic_ostream"* @_ZNSolsEi(%"class.std::basic_ostream"* nonnull align 8 dereferenceable(8), i32) local_unnamed_addr #0

; Function Attrs: mustprogress nofree nosync nounwind willreturn
declare void @llvm.stackrestore(i8*) #5

; Function Attrs: argmemonly mustprogress nofree nosync nounwind willreturn
declare void @llvm.lifetime.end.p0i8(i64 immarg, i8* nocapture) #4

declare nonnull align 8 dereferenceable(8) %"class.std::basic_ostream"* @_ZNSo3putEc(%"class.std::basic_ostream"* nonnull align 8 dereferenceable(8), i8 signext) local_unnamed_addr #0

declare nonnull align 8 dereferenceable(8) %"class.std::basic_ostream"* @_ZNSo5flushEv(%"class.std::basic_ostream"* nonnull align 8 dereferenceable(8)) local_unnamed_addr #0

; Function Attrs: noreturn
declare void @_ZSt16__throw_bad_castv() local_unnamed_addr #6

declare void @_ZNKSt5ctypeIcE13_M_widen_initEv(%"class.std::ctype"* nonnull align 8 dereferenceable(570)) local_unnamed_addr #0

; Function Attrs: sspstrong uwtable
define internal void @_GLOBAL__sub_I_626.cpp() #7 section ".text.startup" {
  tail call void @_ZNSt8ios_base4InitC1Ev(%"class.std::ios_base::Init"* nonnull align 1 dereferenceable(1) @_ZStL8__ioinit)
  %1 = tail call i32 @__cxa_atexit(void (i8*)* bitcast (void (%"class.std::ios_base::Init"*)* @_ZNSt8ios_base4InitD1Ev to void (i8*)*), i8* getelementptr inbounds (%"class.std::ios_base::Init", %"class.std::ios_base::Init"* @_ZStL8__ioinit, i64 0, i32 0), i8* nonnull @__dso_handle) #8
  ret void
}


!llvm.module.flags = !{!0, !1, !2, !3}
!llvm.ident = !{!4}

!0 = !{i32 1, !"wchar_size", i32 4}
!1 = !{i32 7, !"PIC Level", i32 2}
!2 = !{i32 7, !"PIE Level", i32 2}
!3 = !{i32 7, !"uwtable", i32 1}
!4 = !{!"clang version 13.0.0"}
!5 = !{!6, !6, i64 0}
!6 = !{!"int", !7, i64 0}
!7 = !{!"omnipotent char", !8, i64 0}
!8 = !{!"Simple C++ TBAA"}
!9 = distinct !{!9, !10}
!10 = !{!"llvm.loop.mustprogress"}
!11 = distinct !{!11, !10, !12}
!12 = !{!"llvm.loop.unswitch.partial.disable"}
!13 = !{!14, !14, i64 0}
!14 = !{!"vtable pointer", !8, i64 0}
!15 = !{!16, !17, i64 240}
!16 = !{!"_ZTSSt9basic_iosIcSt11char_traitsIcEE", !17, i64 216, !7, i64 224, !18, i64 225, !17, i64 232, !17, i64 240, !17, i64 248, !17, i64 256}
!17 = !{!"any pointer", !7, i64 0}
!18 = !{!"bool", !7, i64 0}
!19 = !{!20, !7, i64 56}
!20 = !{!"_ZTSSt5ctypeIcE", !17, i64 16, !18, i64 24, !17, i64 32, !17, i64 40, !17, i64 48, !7, i64 56, !7, i64 57, !7, i64 313, !7, i64 569}
!21 = !{!7, !7, i64 0}
!22 = distinct !{!22, !10}
!23 = distinct !{!23, !10}
